; Function Attrs: nounwind uwtable
define void @evtag_marshal_int(ptr noundef %0, i32 noundef %1, i32 noundef %2) local_unnamed_addr #1 {
  %4 = alloca [5 x i8], align 1
  %5 = alloca [5 x i8], align 1
  %6 = alloca [5 x i8], align 1
  call void @llvm.lifetime.start.p0(i64 5, ptr nonnull %6) #7
  call void @llvm.memset.p0.i64(ptr noundef nonnull align 1 dereferenceable(5) %6, i8 0, i64 5, i1 false)
  %.not23.i = icmp eq i32 %2, 0
  br i1 %.not23.i, label %encode_int_internal.exit, label %.lr.ph.i

.lr.ph.i:                                         ; preds = %3, %20
  %.02025.i = phi i32 [ %22, %20 ], [ 1, %3 ]
  %.02124.i = phi i32 [ %21, %20 ], [ %2, %3 ]
  %7 = and i32 %.02025.i, 1
  %.not22.i = icmp eq i32 %7, 0
  %8 = lshr i32 %.02025.i, 1
  %9 = zext nneg i32 %8 to i64
  %10 = getelementptr inbounds nuw i8, ptr %6, i64 %9
  %11 = load i8, ptr %10, align 1
  %.021.tr.i = trunc i32 %.02124.i to i8
  br i1 %.not22.i, label %16, label %12

12:                                               ; preds = %.lr.ph.i
  %13 = and i8 %11, -16
  %14 = and i8 %.021.tr.i, 15
  %15 = or disjoint i8 %13, %14
  br label %20

16:                                               ; preds = %.lr.ph.i
  %17 = and i8 %11, 15
  %18 = shl i8 %.021.tr.i, 4
  %19 = or disjoint i8 %17, %18
  br label %20

20:                                               ; preds = %16, %12
  %.sink.i = phi i8 [ %19, %16 ], [ %15, %12 ]
  store i8 %.sink.i, ptr %10, align 1
  %21 = lshr i32 %.02124.i, 4
  %22 = add nuw nsw i32 %.02025.i, 1
  %.not.i = icmp ult i32 %.02124.i, 16
  br i1 %.not.i, label %._crit_edge.i, label %.lr.ph.i, !llvm.loop !3

._crit_edge.i:                                    ; preds = %20
  %.pre.i = load i8, ptr %6, align 1
  %23 = and i8 %.pre.i, 15
  %24 = icmp samesign ugt i32 %.02025.i, 1
  %.020.tr.i = trunc i32 %22 to i8
  %25 = shl i8 %.020.tr.i, 4
  %26 = add i8 %25, -32
  %spec.select.i = select i1 %24, i8 %26, i8 0
  %27 = or disjoint i8 %23, %spec.select.i
  %28 = add nuw i32 %.02025.i, 2
  %29 = lshr i32 %28, 1
  br label %encode_int_internal.exit

encode_int_internal.exit:                         ; preds = %3, %._crit_edge.i
  %.020.lcssa29.i = phi i32 [ 1, %3 ], [ %29, %._crit_edge.i ]
  %30 = phi i8 [ 0, %3 ], [ %27, %._crit_edge.i ]
  store i8 %30, ptr %6, align 1
  call void @llvm.lifetime.start.p0(i64 5, ptr nonnull %5) #7
  call void @llvm.memset.p0.i64(ptr noundef nonnull align 1 dereferenceable(5) %5, i8 0, i64 5, i1 false)
  br label %31

31:                                               ; preds = %31, %encode_int_internal.exit
  %indvars.iv.i = phi i64 [ %indvars.iv.next.i, %31 ], [ 0, %encode_int_internal.exit ]
  %.011.i = phi i32 [ %34, %31 ], [ %1, %encode_int_internal.exit ]
  %32 = trunc i32 %.011.i to i8
  %33 = and i8 %32, 127
  %34 = lshr i32 %.011.i, 7
  %.not.i6 = icmp ult i32 %.011.i, 128
  %masksel.i = select i1 %.not.i6, i8 0, i8 -128
  %.0.i = or disjoint i8 %33, %masksel.i
  %indvars.iv.next.i = add nuw nsw i64 %indvars.iv.i, 1
  %35 = getelementptr inbounds nuw [5 x i8], ptr %5, i64 0, i64 %indvars.iv.i
  store i8 %.0.i, ptr %35, align 1
  br i1 %.not.i6, label %36, label %31, !llvm.loop !6

36:                                               ; preds = %31
  %.not14.i = icmp eq ptr %0, null
  br i1 %.not14.i, label %evtag_encode_tag.exit, label %37

37:                                               ; preds = %36
  %38 = and i64 %indvars.iv.next.i, 4294967295
  %39 = call i32 @evbuffer_add(ptr noundef nonnull %0, ptr noundef nonnull %5, i64 noundef %38) #7
  br label %evtag_encode_tag.exit

evtag_encode_tag.exit:                            ; preds = %36, %37
  call void @llvm.lifetime.end.p0(i64 5, ptr nonnull %5) #7
  call void @llvm.lifetime.start.p0(i64 5, ptr nonnull %4) #7
  call void @llvm.memset.p0.i64(ptr noundef nonnull align 1 dereferenceable(5) %4, i8 0, i64 5, i1 false)
  %.not23.i.i = icmp eq i32 %.020.lcssa29.i, 0
  br i1 %.not23.i.i, label %evtag_encode_int.exit, label %.lr.ph.i.i

.lr.ph.i.i:                                       ; preds = %evtag_encode_tag.exit, %53
  %.02025.i.i = phi i32 [ %55, %53 ], [ 1, %evtag_encode_tag.exit ]
  %.02124.i.i = phi i32 [ %54, %53 ], [ %.020.lcssa29.i, %evtag_encode_tag.exit ]
  %40 = and i32 %.02025.i.i, 1
  %.not22.i.i = icmp eq i32 %40, 0
  %41 = lshr i32 %.02025.i.i, 1
  %42 = zext nneg i32 %41 to i64
  %43 = getelementptr inbounds nuw i8, ptr %4, i64 %42
  %44 = load i8, ptr %43, align 1
  %.021.tr.i.i = trunc i32 %.02124.i.i to i8
  br i1 %.not22.i.i, label %49, label %45

45:                                               ; preds = %.lr.ph.i.i
  %46 = and i8 %44, -16
  %47 = and i8 %.021.tr.i.i, 15
  %48 = or disjoint i8 %46, %47
  br label %53

49:                                               ; preds = %.lr.ph.i.i
  %50 = and i8 %44, 15
  %51 = shl i8 %.021.tr.i.i, 4
  %52 = or disjoint i8 %50, %51
  br label %53

53:                                               ; preds = %49, %45
  %.sink.i.i = phi i8 [ %52, %49 ], [ %48, %45 ]
  store i8 %.sink.i.i, ptr %43, align 1
  %54 = lshr i32 %.02124.i.i, 4
  %55 = add nuw nsw i32 %.02025.i.i, 1
  %.not.i.i = icmp samesign ult i32 %.02124.i.i, 16
  br i1 %.not.i.i, label %._crit_edge.i.i, label %.lr.ph.i.i, !llvm.loop !3

._crit_edge.i.i:                                  ; preds = %53
  %.pre.i.i = load i8, ptr %4, align 1
  %56 = and i8 %.pre.i.i, 15
  %57 = icmp samesign ugt i32 %.02025.i.i, 1
  %.020.tr.i.i = trunc i32 %55 to i8
  %58 = shl i8 %.020.tr.i.i, 4
  %59 = add i8 %58, -32
  %spec.select.i.i = select i1 %57, i8 %59, i8 0
  %60 = or disjoint i8 %56, %spec.select.i.i
  %61 = add nuw i32 %.02025.i.i, 2
  %62 = lshr i32 %61, 1
  %63 = zext nneg i32 %62 to i64
  br label %evtag_encode_int.exit

evtag_encode_int.exit:                            ; preds = %evtag_encode_tag.exit, %._crit_edge.i.i
  %.020.lcssa29.i.i = phi i64 [ 1, %evtag_encode_tag.exit ], [ %63, %._crit_edge.i.i ]
  %64 = phi i8 [ 0, %evtag_encode_tag.exit ], [ %60, %._crit_edge.i.i ]
  store i8 %64, ptr %4, align 1
  %65 = call i32 @evbuffer_add(ptr noundef %0, ptr noundef nonnull %4, i64 noundef %.020.lcssa29.i.i) #7
  call void @llvm.lifetime.end.p0(i64 5, ptr nonnull %4) #7
  %66 = zext nneg i32 %.020.lcssa29.i to i64
  %67 = call i32 @evbuffer_add(ptr noundef %0, ptr noundef nonnull %6, i64 noundef %66) #7
  call void @llvm.lifetime.end.p0(i64 5, ptr nonnull %6) #7
  ret void
}